target datalayout = "e-m:e-p270:32:32-p271:32:32-p272:64:64-i64:64-i128:128-f80:128-n8:16:32:64-S128"
target triple = "x86_64-pc-linux-gnu"

@proto_register_opus.ett = internal global [1 x ptr] [ptr @ett_opus], align 8
@.str.40 = private unnamed_addr constant [29 x i8] c"Opus Interactive Audio Codec\00", align 1
@.str.41 = private unnamed_addr constant [5 x i8] c"OPUS\00", align 1
@.str.42 = private unnamed_addr constant [5 x i8] c"opus\00", align 1
@proto_opus = internal global i32 0, align 4
@.str.43 = private unnamed_addr constant [21 x i8] c"dynamic.payload.type\00", align 1
@opus_handle = internal global ptr null, align 8

; Function Attrs: null_pointer_is_valid sspstrong uwtable
define hidden void @proto_register_opus() #0 {
  %1 = alloca ptr, align 8
  %2 = alloca ptr, align 8
  call void @llvm.lifetime.start.p0(i64 8, ptr %1) #5
  call void @llvm.lifetime.start.p0(i64 8, ptr %2) #5
  %3 = call i32 @proto_register_protocol(ptr noundef @.str.40, ptr noundef @.str.41, ptr noundef @.str.42)
  store i32 %3, ptr @proto_opus, align 4
  %4 = load i32, ptr @proto_opus, align 4
  call void @proto_register_field_array(i32 noundef %4, ptr noundef @proto_register_opus.hf, i32 noundef 10)
  call void @proto_register_subtree_array(ptr noundef @proto_register_opus.ett, i32 noundef 1)
  %5 = load i32, ptr @proto_opus, align 4
  %6 = call ptr @prefs_register_protocol(i32 noundef %5, ptr noundef null)
  store ptr %6, ptr %1, align 8
  %7 = load i32, ptr @proto_opus, align 4
  %8 = call ptr @expert_register_protocol(i32 noundef %7)
  store ptr %8, ptr %2, align 8
  %9 = load ptr, ptr %2, align 8
  call void @expert_register_field_array(ptr noundef %9, ptr noundef @proto_register_opus.ei, i32 noundef 8)
  %10 = load ptr, ptr %1, align 8
  call void @prefs_register_obsolete_preference(ptr noundef %10, ptr noundef @.str.43)
  %11 = load i32, ptr @proto_opus, align 4
  %12 = call ptr @register_dissector(ptr noundef @.str.42, ptr noundef @dissect_opus, i32 noundef %11)
  store ptr %12, ptr @opus_handle, align 8
  call void @llvm.lifetime.end.p0(i64 8, ptr %2) #5
  call void @llvm.lifetime.end.p0(i64 8, ptr %1) #5
  ret void
}