; Function Attrs: null_pointer_is_valid sspstrong uwtable
define hidden void @proto_register_opus() local_unnamed_addr #0 {
  %1 = tail call i32 @proto_register_protocol(ptr noundef nonnull @.str.40, ptr noundef nonnull @.str.41, ptr noundef nonnull @.str.42)
  store i32 %1, ptr @proto_opus, align 4
  tail call void @proto_register_field_array(i32 noundef %1, ptr noundef nonnull @proto_register_opus.hf, i32 noundef 10)
  tail call void @proto_register_subtree_array(ptr noundef nonnull @proto_register_opus.ett, i32 noundef 1)
  %2 = load i32, ptr @proto_opus, align 4
  %3 = tail call ptr @prefs_register_protocol(i32 noundef %2, ptr noundef null)
  %4 = load i32, ptr @proto_opus, align 4
  %5 = tail call ptr @expert_register_protocol(i32 noundef %4)
  tail call void @expert_register_field_array(ptr noundef %5, ptr noundef nonnull @proto_register_opus.ei, i32 noundef 8)
  tail call void @prefs_register_obsolete_preference(ptr noundef %3, ptr noundef nonnull @.str.43)
  %6 = load i32, ptr @proto_opus, align 4
  %7 = tail call ptr @register_dissector(ptr noundef nonnull @.str.42, ptr noundef nonnull @dissect_opus, i32 noundef %6)
  store ptr %7, ptr @opus_handle, align 8
  ret void
}